target datalayout = "e-m:e-p270:32:32-p271:32:32-p272:64:64-i64:64-i128:128-f80:128-n8:16:32:64-S128"
target triple = "x86_64-pc-linux-gnu"

@idb_merge_mode_strings = internal global [4 x ptr] [ptr @.str.1, ptr @.str.2, ptr @.str.3, ptr @.str.4], align 16

; Function Attrs: nounwind null_pointer_is_valid sspstrong uwtable
define ptr @merge_idb_merge_mode_to_string(i32 noundef %0) #3 {
  %2 = alloca ptr, align 8
  %3 = alloca i32, align 4
  store i32 %0, ptr %3, align 4
  %4 = load i32, ptr %3, align 4
  %5 = icmp sge i32 %4, 0
  br i1 %5, label %6, label %14

6:                                                ; preds = %1
  %7 = load i32, ptr %3, align 4
  %8 = icmp slt i32 %7, 3
  br i1 %8, label %9, label %14

9:                                                ; preds = %6
  %10 = load i32, ptr %3, align 4
  %11 = sext i32 %10 to i64
  %12 = getelementptr [4 x ptr], ptr @idb_merge_mode_strings, i64 0, i64 %11
  %13 = load ptr, ptr %12, align 8
  store ptr %13, ptr %2, align 8
  br label %16

14:                                               ; preds = %6, %1
  %15 = load ptr, ptr getelementptr ([4 x ptr], ptr @idb_merge_mode_strings, i64 0, i64 3), align 8
  store ptr %15, ptr %2, align 8
  br label %16

16:                                               ; preds = %14, %9
  %17 = load ptr, ptr %2, align 8
  ret ptr %17
}