; Function Attrs: mustprogress nofree norecurse nosync nounwind null_pointer_is_valid sspstrong willreturn memory(none) uwtable
define ptr @merge_idb_merge_mode_to_string(i32 noundef %0) local_unnamed_addr #3 {
  %or.cond = icmp ult i32 %0, 3
  br i1 %or.cond, label %2, label %6

2:                                                ; preds = %1
  %3 = zext nneg i32 %0 to i64
  %4 = getelementptr [4 x ptr], ptr @idb_merge_mode_strings, i64 0, i64 %3
  %5 = load ptr, ptr %4, align 8
  br label %6

6:                                                ; preds = %1, %2
  %.0 = phi ptr [ %5, %2 ], [ @.str.4, %1 ]
  ret ptr %.0
}